(dp0
S'p2'
p1
S'True'
p2
sS'p3'
p3
S'True'
p4
sS'p1'
p5
S'False'
p6
sS'p4'
p7
g4
sS's3'
p8
S'7:00'
p9
sS's2'
p10
S'2:00'
p11
sS's1'
p12
S'1:00'
p13
sS't2'
p14
S'pickled pineapples'
p15
sS't3'
p16
S'gotta take my allegeries'
p17
sS't1'
p18
S'pepto bismol'
p19
sS'a1'
p20
g2
sS'a3'
p21
S'False'
p22
sS'a2'
p23
g6
sS'a4'
p24
g22
sS's4'
p25
S'1:00'
p26
sS't4'
p27
S'kota is a fisdh'
p28
s.