(dp0
S'p2'
p1
S'True'
p2
sS'p3'
p3
g2
sS'p1'
p4
S'False'
p5
sS's3'
p6
S'3:00'
p7
sS's2'
p8
S'2:00'
p9
sS's1'
p10
S'1:00'
p11
sS't2'
p12
S'rwtg'
p13
sS't3'
p14
S'sd'
p15
sS't1'
p16
S'hello'
p17
sS'a1'
p18
g2
sS'a3'
p19
g5
sS'a2'
p20
g5
s.